target datalayout = "e-m:e-p270:32:32-p271:32:32-p272:64:64-i64:64-i128:128-f80:128-n8:16:32:64-S128"
target triple = "x86_64-pc-linux-gnu"

%struct.rb_data_type_struct = type { ptr, %struct.anon, ptr, ptr, i64 }
%struct.anon = type { ptr, ptr, ptr, ptr, [1 x ptr] }
%struct.strscanner = type { i64, i64, i64, i64, %struct.re_registers, i64, i8 }
%struct.re_registers = type { i32, i32, ptr, ptr }
%struct.RString = type { %struct.RBasic, i64, %union.anon }
%struct.RBasic = type { i64, i64 }
%union.anon = type { %struct.anon.0 }
%struct.anon.0 = type { ptr, %union.anon.1 }
%union.anon.1 = type { i64 }
%struct.anon.2 = type { [1 x i8] }

@strscanner_type = internal constant %struct.rb_data_type_struct { ptr @.str.2, %struct.anon { ptr @strscan_mark, ptr @strscan_free, ptr @strscan_memsize, ptr null, [1 x ptr] zeroinitializer }, ptr null, ptr null, i64 1 }, align 8
@.str.70 = private unnamed_addr constant [1 x i8] zeroinitializer, align 1
@.str.76 = private unnamed_addr constant [24 x i8] c"#<%li\0B (uninitialized)>\00", align 1
@.str.77 = private unnamed_addr constant [12 x i8] c"#<%li\0B fin>\00", align 1
@.str.78 = private unnamed_addr constant [23 x i8] c"#<%li\0B %ld/%ld @ %li\0B>\00", align 1
@.str.79 = private unnamed_addr constant [28 x i8] c"#<%li\0B %ld/%ld %li\0B @ %li\0B>\00", align 1
@.str.80 = private unnamed_addr constant [4 x i8] c"...\00", align 1

; Function Attrs: inlinehint nounwind sspstrong willreturn memory(read) uwtable
define internal i64 @RB_FL_TEST_RAW(i64 noundef %0, i64 noundef %1) #11 {
  %3 = alloca i64, align 8
  %4 = alloca i64, align 8
  store i64 %0, ptr %3, align 8, !tbaa !6
  store i64 %1, ptr %4, align 8, !tbaa !6
  %5 = load i64, ptr %3, align 8, !tbaa !6
  %6 = inttoptr i64 %5 to ptr
  %7 = getelementptr inbounds nuw %struct.RBasic, ptr %6, i32 0, i32 0
  %8 = load i64, ptr %7, align 8, !tbaa !61
  %9 = load i64, ptr %4, align 8, !tbaa !6
  %10 = and i64 %8, %9
  ret i64 %10
}

; Function Attrs: inlinehint nounwind sspstrong willreturn memory(read) uwtable
define internal zeroext i1 @RB_FL_ANY_RAW(i64 noundef %0, i64 noundef %1) #11 {
  %3 = alloca i64, align 8
  %4 = alloca i64, align 8
  store i64 %0, ptr %3, align 8, !tbaa !6
  store i64 %1, ptr %4, align 8, !tbaa !6
  %5 = load i64, ptr %3, align 8, !tbaa !6
  %6 = load i64, ptr %4, align 8, !tbaa !6
  %7 = call i64 @RB_FL_TEST_RAW(i64 noundef %5, i64 noundef %6) #28
  %8 = icmp ne i64 %7, 0
  ret i1 %8
}

; Function Attrs: inlinehint nounwind sspstrong willreturn memory(read, argmem: readwrite) uwtable
define internal void @rbimpl_rstring_getmem(ptr dead_on_unwind noalias writable sret(%struct.RString) align 8 %0, i64 noundef %1) #13 {
  %3 = alloca i64, align 8
  store i64 %1, ptr %3, align 8, !tbaa !6
  %4 = load i64, ptr %3, align 8, !tbaa !6
  %5 = call zeroext i1 @RB_FL_ANY_RAW(i64 noundef %4, i64 noundef 8192) #28
  br i1 %5, label %6, label %9

6:                                                ; preds = %2
  %7 = load i64, ptr %3, align 8, !tbaa !6
  %8 = inttoptr i64 %7 to ptr
  call void @llvm.memcpy.p0.p0.i64(ptr align 8 %0, ptr align 8 %8, i64 40, i1 false), !tbaa.struct !62
  br label %20

9:                                                ; preds = %2
  %10 = load i64, ptr %3, align 8, !tbaa !6
  %11 = call i64 @RSTRING_LEN(i64 noundef %10) #28
  %12 = getelementptr inbounds nuw %struct.RString, ptr %0, i32 0, i32 1
  store i64 %11, ptr %12, align 8, !tbaa !35
  %13 = load i64, ptr %3, align 8, !tbaa !6
  %14 = inttoptr i64 %13 to ptr
  %15 = getelementptr inbounds nuw %struct.RString, ptr %14, i32 0, i32 2
  %16 = getelementptr inbounds nuw %struct.anon.2, ptr %15, i32 0, i32 0
  %17 = getelementptr inbounds [1 x i8], ptr %16, i64 0, i64 0
  %18 = getelementptr inbounds nuw %struct.RString, ptr %0, i32 0, i32 2
  %19 = getelementptr inbounds nuw %struct.anon.0, ptr %18, i32 0, i32 0
  store ptr %17, ptr %19, align 8, !tbaa !31
  br label %20

20:                                               ; preds = %9, %6
  ret void
}

; Function Attrs: inlinehint nounwind sspstrong uwtable
define internal i64 @rbimpl_strlen(ptr noundef nonnull %0) #4 {
  %2 = alloca ptr, align 8
  store ptr %0, ptr %2, align 8, !tbaa !12
  %3 = load ptr, ptr %2, align 8, !tbaa !12
  %4 = call i64 @strlen(ptr noundef %3) #28
  ret i64 %4
}

; Function Attrs: inlinehint nounwind sspstrong uwtable
define internal i64 @rbimpl_str_cat_cstr(i64 noundef %0, ptr noundef nonnull %1) #4 {
  %3 = alloca i64, align 8
  %4 = alloca ptr, align 8
  %5 = alloca i64, align 8
  store i64 %0, ptr %3, align 8, !tbaa !6
  store ptr %1, ptr %4, align 8, !tbaa !12
  call void @llvm.lifetime.start.p0(i64 8, ptr %5) #23
  %6 = load ptr, ptr %4, align 8, !tbaa !12
  %7 = call i64 @rbimpl_strlen(ptr noundef %6)
  store i64 %7, ptr %5, align 8, !tbaa !6
  %8 = load i64, ptr %3, align 8, !tbaa !6
  %9 = load ptr, ptr %4, align 8, !tbaa !12
  %10 = load i64, ptr %5, align 8, !tbaa !6
  %11 = call i64 @rb_str_cat(i64 noundef %8, ptr noundef %9, i64 noundef %10)
  call void @llvm.lifetime.end.p0(i64 8, ptr %5) #23
  ret i64 %11
}

; Function Attrs: inlinehint nounwind sspstrong uwtable
define internal ptr @RSTRING_PTR(i64 noundef %0) #4 {
  %2 = alloca i64, align 8
  %3 = alloca ptr, align 8
  %4 = alloca %struct.RString, align 8
  store i64 %0, ptr %2, align 8, !tbaa !6
  call void @llvm.lifetime.start.p0(i64 8, ptr %3) #23
  %5 = load i64, ptr %2, align 8, !tbaa !6
  call void @rbimpl_rstring_getmem(ptr dead_on_unwind writable sret(%struct.RString) align 8 %4, i64 noundef %5) #29
  %6 = getelementptr inbounds nuw %struct.RString, ptr %4, i32 0, i32 2
  %7 = getelementptr inbounds nuw %struct.anon.0, ptr %6, i32 0, i32 0
  %8 = load ptr, ptr %7, align 8, !tbaa !31
  store ptr %8, ptr %3, align 8, !tbaa !12
  %9 = load ptr, ptr %3, align 8, !tbaa !12
  call void @llvm.lifetime.end.p0(i64 8, ptr %3) #23
  ret ptr %9
}

; Function Attrs: inlinehint nounwind sspstrong uwtable
define internal i64 @rbimpl_str_new_cstr(ptr noundef nonnull %0) #4 {
  %2 = alloca ptr, align 8
  %3 = alloca i64, align 8
  store ptr %0, ptr %2, align 8, !tbaa !12
  call void @llvm.lifetime.start.p0(i64 8, ptr %3) #23
  %4 = load ptr, ptr %2, align 8, !tbaa !12
  %5 = call i64 @rbimpl_strlen(ptr noundef %4)
  store i64 %5, ptr %3, align 8, !tbaa !6
  %6 = load ptr, ptr %2, align 8, !tbaa !12
  %7 = load i64, ptr %3, align 8, !tbaa !6
  %8 = call i64 @rb_str_new_static(ptr noundef %6, i64 noundef %7)
  call void @llvm.lifetime.end.p0(i64 8, ptr %3) #23
  ret i64 %8
}

; Function Attrs: nounwind sspstrong uwtable
define internal i64 @inspect1(ptr noundef %0) #0 {
  %2 = alloca i64, align 8
  %3 = alloca ptr, align 8
  %4 = alloca i64, align 8
  %5 = alloca i64, align 8
  %6 = alloca i32, align 4
  store ptr %0, ptr %3, align 8, !tbaa !15
  call void @llvm.lifetime.start.p0(i64 8, ptr %4) #23
  call void @llvm.lifetime.start.p0(i64 8, ptr %5) #23
  %7 = load ptr, ptr %3, align 8, !tbaa !15
  %8 = getelementptr inbounds nuw %struct.strscanner, ptr %7, i32 0, i32 3
  %9 = load i64, ptr %8, align 8, !tbaa !27
  %10 = icmp eq i64 %9, 0
  br i1 %10, label %11, label %13

11:                                               ; preds = %1
  %12 = call i64 @rbimpl_str_new_cstr(ptr noundef @.str.70)
  store i64 %12, ptr %2, align 8
  store i32 1, ptr %6, align 4
  br label %42

13:                                               ; preds = %1
  %14 = load ptr, ptr %3, align 8, !tbaa !15
  %15 = getelementptr inbounds nuw %struct.strscanner, ptr %14, i32 0, i32 3
  %16 = load i64, ptr %15, align 8, !tbaa !27
  %17 = icmp sgt i64 %16, 5
  br i1 %17, label %18, label %20

18:                                               ; preds = %13
  %19 = call i64 @rbimpl_str_new_cstr(ptr noundef @.str.80)
  store i64 %19, ptr %4, align 8, !tbaa !6
  store i64 5, ptr %5, align 8, !tbaa !6
  br label %25

20:                                               ; preds = %13
  %21 = call i64 @rb_str_new_static(ptr noundef null, i64 noundef 0)
  store i64 %21, ptr %4, align 8, !tbaa !6
  %22 = load ptr, ptr %3, align 8, !tbaa !15
  %23 = getelementptr inbounds nuw %struct.strscanner, ptr %22, i32 0, i32 3
  %24 = load i64, ptr %23, align 8, !tbaa !27
  store i64 %24, ptr %5, align 8, !tbaa !6
  br label %25

25:                                               ; preds = %20, %18
  %26 = load i64, ptr %4, align 8, !tbaa !6
  %27 = load ptr, ptr %3, align 8, !tbaa !15
  %28 = getelementptr inbounds nuw %struct.strscanner, ptr %27, i32 0, i32 1
  %29 = load i64, ptr %28, align 8, !tbaa !22
  %30 = call ptr @RSTRING_PTR(i64 noundef %29)
  %31 = load ptr, ptr %3, align 8, !tbaa !15
  %32 = getelementptr inbounds nuw %struct.strscanner, ptr %31, i32 0, i32 3
  %33 = load i64, ptr %32, align 8, !tbaa !27
  %34 = getelementptr inbounds i8, ptr %30, i64 %33
  %35 = load i64, ptr %5, align 8, !tbaa !6
  %36 = sub i64 0, %35
  %37 = getelementptr inbounds i8, ptr %34, i64 %36
  %38 = load i64, ptr %5, align 8, !tbaa !6
  %39 = call i64 @rb_str_cat(i64 noundef %26, ptr noundef %37, i64 noundef %38)
  %40 = load i64, ptr %4, align 8, !tbaa !6
  %41 = call i64 @rb_str_dump(i64 noundef %40)
  store i64 %41, ptr %2, align 8
  store i32 1, ptr %6, align 4
  br label %42

42:                                               ; preds = %25, %11
  call void @llvm.lifetime.end.p0(i64 8, ptr %5) #23
  call void @llvm.lifetime.end.p0(i64 8, ptr %4) #23
  %43 = load i64, ptr %2, align 8
  ret i64 %43
}

; Function Attrs: nounwind sspstrong uwtable
define internal i64 @inspect2(ptr noundef %0) #0 {
  %2 = alloca i64, align 8
  %3 = alloca ptr, align 8
  %4 = alloca i64, align 8
  %5 = alloca i64, align 8
  %6 = alloca i32, align 4
  store ptr %0, ptr %3, align 8, !tbaa !15
  call void @llvm.lifetime.start.p0(i64 8, ptr %4) #23
  call void @llvm.lifetime.start.p0(i64 8, ptr %5) #23
  %7 = load ptr, ptr %3, align 8, !tbaa !15
  %8 = getelementptr inbounds nuw %struct.strscanner, ptr %7, i32 0, i32 3
  %9 = load i64, ptr %8, align 8, !tbaa !27
  %10 = load ptr, ptr %3, align 8, !tbaa !15
  %11 = getelementptr inbounds nuw %struct.strscanner, ptr %10, i32 0, i32 1
  %12 = load i64, ptr %11, align 8, !tbaa !22
  %13 = call i64 @RSTRING_LEN(i64 noundef %12) #28
  %14 = icmp sge i64 %9, %13
  br i1 %14, label %15, label %17

15:                                               ; preds = %1
  %16 = call i64 @rbimpl_str_new_cstr(ptr noundef @.str.70)
  store i64 %16, ptr %2, align 8
  store i32 1, ptr %6, align 4
  br label %54

17:                                               ; preds = %1
  %18 = load ptr, ptr %3, align 8, !tbaa !15
  %19 = getelementptr inbounds nuw %struct.strscanner, ptr %18, i32 0, i32 1
  %20 = load i64, ptr %19, align 8, !tbaa !22
  %21 = call i64 @RSTRING_LEN(i64 noundef %20) #28
  %22 = load ptr, ptr %3, align 8, !tbaa !15
  %23 = getelementptr inbounds nuw %struct.strscanner, ptr %22, i32 0, i32 3
  %24 = load i64, ptr %23, align 8, !tbaa !27
  %25 = sub nsw i64 %21, %24
  store i64 %25, ptr %5, align 8, !tbaa !6
  %26 = load i64, ptr %5, align 8, !tbaa !6
  %27 = icmp sgt i64 %26, 5
  br i1 %27, label %28, label %40

28:                                               ; preds = %17
  %29 = load ptr, ptr %3, align 8, !tbaa !15
  %30 = getelementptr inbounds nuw %struct.strscanner, ptr %29, i32 0, i32 1
  %31 = load i64, ptr %30, align 8, !tbaa !22
  %32 = call ptr @RSTRING_PTR(i64 noundef %31)
  %33 = load ptr, ptr %3, align 8, !tbaa !15
  %34 = getelementptr inbounds nuw %struct.strscanner, ptr %33, i32 0, i32 3
  %35 = load i64, ptr %34, align 8, !tbaa !27
  %36 = getelementptr inbounds i8, ptr %32, i64 %35
  %37 = call i64 @rb_str_new(ptr noundef %36, i64 noundef 5)
  store i64 %37, ptr %4, align 8, !tbaa !6
  %38 = load i64, ptr %4, align 8, !tbaa !6
  %39 = call i64 @rbimpl_str_cat_cstr(i64 noundef %38, ptr noundef @.str.80)
  br label %51

40:                                               ; preds = %17
  %41 = load ptr, ptr %3, align 8, !tbaa !15
  %42 = getelementptr inbounds nuw %struct.strscanner, ptr %41, i32 0, i32 1
  %43 = load i64, ptr %42, align 8, !tbaa !22
  %44 = call ptr @RSTRING_PTR(i64 noundef %43)
  %45 = load ptr, ptr %3, align 8, !tbaa !15
  %46 = getelementptr inbounds nuw %struct.strscanner, ptr %45, i32 0, i32 3
  %47 = load i64, ptr %46, align 8, !tbaa !27
  %48 = getelementptr inbounds i8, ptr %44, i64 %47
  %49 = load i64, ptr %5, align 8, !tbaa !6
  %50 = call i64 @rb_str_new(ptr noundef %48, i64 noundef %49)
  store i64 %50, ptr %4, align 8, !tbaa !6
  br label %51

51:                                               ; preds = %40, %28
  %52 = load i64, ptr %4, align 8, !tbaa !6
  %53 = call i64 @rb_str_dump(i64 noundef %52)
  store i64 %53, ptr %2, align 8
  store i32 1, ptr %6, align 4
  br label %54

54:                                               ; preds = %51, %15
  call void @llvm.lifetime.end.p0(i64 8, ptr %5) #23
  call void @llvm.lifetime.end.p0(i64 8, ptr %4) #23
  %55 = load i64, ptr %2, align 8
  ret i64 %55
}

; Function Attrs: inlinehint nounwind sspstrong willreturn memory(read) uwtable
define internal i64 @RSTRING_LEN(i64 noundef %0) #11 {
  %2 = alloca i64, align 8
  store i64 %0, ptr %2, align 8, !tbaa !6
  %3 = load i64, ptr %2, align 8, !tbaa !6
  %4 = inttoptr i64 %3 to ptr
  %5 = getelementptr inbounds nuw %struct.RString, ptr %4, i32 0, i32 1
  %6 = load i64, ptr %5, align 8, !tbaa !35
  ret i64 %6
}

; Function Attrs: inlinehint nounwind sspstrong willreturn memory(none) uwtable
define internal zeroext i1 @RB_NIL_P(i64 noundef %0) #7 {
  %2 = alloca i64, align 8
  store i64 %0, ptr %2, align 8, !tbaa !6
  %3 = load i64, ptr %2, align 8, !tbaa !6
  %4 = icmp eq i64 %3, 4
  ret i1 %4
}

; Function Attrs: nounwind sspstrong uwtable
define internal ptr @check_strscan(i64 noundef %0) #0 {
  %2 = alloca i64, align 8
  store i64 %0, ptr %2, align 8, !tbaa !6
  %3 = load i64, ptr %2, align 8, !tbaa !6
  %4 = call ptr @rb_check_typeddata(i64 noundef %3, ptr noundef @strscanner_type)
  ret ptr %4
}

; Function Attrs: nounwind sspstrong uwtable
define internal i64 @strscan_inspect(i64 noundef %0) #0 {
  %2 = alloca i64, align 8
  %3 = alloca i64, align 8
  %4 = alloca ptr, align 8
  %5 = alloca i64, align 8
  %6 = alloca i64, align 8
  %7 = alloca i32, align 4
  store i64 %0, ptr %3, align 8, !tbaa !6
  call void @llvm.lifetime.start.p0(i64 8, ptr %4) #23
  call void @llvm.lifetime.start.p0(i64 8, ptr %5) #23
  call void @llvm.lifetime.start.p0(i64 8, ptr %6) #23
  %8 = load i64, ptr %3, align 8, !tbaa !6
  %9 = call ptr @check_strscan(i64 noundef %8)
  store ptr %9, ptr %4, align 8, !tbaa !15
  %10 = load ptr, ptr %4, align 8, !tbaa !15
  %11 = getelementptr inbounds nuw %struct.strscanner, ptr %10, i32 0, i32 1
  %12 = load i64, ptr %11, align 8, !tbaa !22
  %13 = call zeroext i1 @RB_NIL_P(i64 noundef %12) #24
  br i1 %13, label %14, label %19

14:                                               ; preds = %1
  %15 = load i64, ptr %3, align 8, !tbaa !6
  %16 = call i64 @rb_obj_class(i64 noundef %15)
  %17 = call i64 (ptr, ...) @rb_sprintf(ptr noundef @.str.76, i64 noundef %16)
  store i64 %17, ptr %5, align 8, !tbaa !6
  %18 = load i64, ptr %5, align 8, !tbaa !6
  store i64 %18, ptr %2, align 8
  store i32 1, ptr %7, align 4
  br label %71

19:                                               ; preds = %1
  %20 = load ptr, ptr %4, align 8, !tbaa !15
  %21 = getelementptr inbounds nuw %struct.strscanner, ptr %20, i32 0, i32 3
  %22 = load i64, ptr %21, align 8, !tbaa !27
  %23 = load ptr, ptr %4, align 8, !tbaa !15
  %24 = getelementptr inbounds nuw %struct.strscanner, ptr %23, i32 0, i32 1
  %25 = load i64, ptr %24, align 8, !tbaa !22
  %26 = call i64 @RSTRING_LEN(i64 noundef %25) #28
  %27 = icmp sge i64 %22, %26
  br i1 %27, label %28, label %33

28:                                               ; preds = %19
  %29 = load i64, ptr %3, align 8, !tbaa !6
  %30 = call i64 @rb_obj_class(i64 noundef %29)
  %31 = call i64 (ptr, ...) @rb_sprintf(ptr noundef @.str.77, i64 noundef %30)
  store i64 %31, ptr %5, align 8, !tbaa !6
  %32 = load i64, ptr %5, align 8, !tbaa !6
  store i64 %32, ptr %2, align 8
  store i32 1, ptr %7, align 4
  br label %71

33:                                               ; preds = %19
  %34 = load ptr, ptr %4, align 8, !tbaa !15
  %35 = getelementptr inbounds nuw %struct.strscanner, ptr %34, i32 0, i32 3
  %36 = load i64, ptr %35, align 8, !tbaa !27
  %37 = icmp eq i64 %36, 0
  br i1 %37, label %38, label %53

38:                                               ; preds = %33
  %39 = load ptr, ptr %4, align 8, !tbaa !15
  %40 = call i64 @inspect2(ptr noundef %39)
  store i64 %40, ptr %6, align 8, !tbaa !6
  %41 = load i64, ptr %3, align 8, !tbaa !6
  %42 = call i64 @rb_obj_class(i64 noundef %41)
  %43 = load ptr, ptr %4, align 8, !tbaa !15
  %44 = getelementptr inbounds nuw %struct.strscanner, ptr %43, i32 0, i32 3
  %45 = load i64, ptr %44, align 8, !tbaa !27
  %46 = load ptr, ptr %4, align 8, !tbaa !15
  %47 = getelementptr inbounds nuw %struct.strscanner, ptr %46, i32 0, i32 1
  %48 = load i64, ptr %47, align 8, !tbaa !22
  %49 = call i64 @RSTRING_LEN(i64 noundef %48) #28
  %50 = load i64, ptr %6, align 8, !tbaa !6
  %51 = call i64 (ptr, ...) @rb_sprintf(ptr noundef @.str.78, i64 noundef %42, i64 noundef %45, i64 noundef %49, i64 noundef %50)
  store i64 %51, ptr %5, align 8, !tbaa !6
  %52 = load i64, ptr %5, align 8, !tbaa !6
  store i64 %52, ptr %2, align 8
  store i32 1, ptr %7, align 4
  br label %71

53:                                               ; preds = %33
  %54 = load ptr, ptr %4, align 8, !tbaa !15
  %55 = call i64 @inspect1(ptr noundef %54)
  store i64 %55, ptr %5, align 8, !tbaa !6
  %56 = load ptr, ptr %4, align 8, !tbaa !15
  %57 = call i64 @inspect2(ptr noundef %56)
  store i64 %57, ptr %6, align 8, !tbaa !6
  %58 = load i64, ptr %3, align 8, !tbaa !6
  %59 = call i64 @rb_obj_class(i64 noundef %58)
  %60 = load ptr, ptr %4, align 8, !tbaa !15
  %61 = getelementptr inbounds nuw %struct.strscanner, ptr %60, i32 0, i32 3
  %62 = load i64, ptr %61, align 8, !tbaa !27
  %63 = load ptr, ptr %4, align 8, !tbaa !15
  %64 = getelementptr inbounds nuw %struct.strscanner, ptr %63, i32 0, i32 1
  %65 = load i64, ptr %64, align 8, !tbaa !22
  %66 = call i64 @RSTRING_LEN(i64 noundef %65) #28
  %67 = load i64, ptr %5, align 8, !tbaa !6
  %68 = load i64, ptr %6, align 8, !tbaa !6
  %69 = call i64 (ptr, ...) @rb_sprintf(ptr noundef @.str.79, i64 noundef %59, i64 noundef %62, i64 noundef %66, i64 noundef %67, i64 noundef %68)
  store i64 %69, ptr %5, align 8, !tbaa !6
  %70 = load i64, ptr %5, align 8, !tbaa !6
  store i64 %70, ptr %2, align 8
  store i32 1, ptr %7, align 4
  br label %71

71:                                               ; preds = %53, %38, %28, %14
  call void @llvm.lifetime.end.p0(i64 8, ptr %6) #23
  call void @llvm.lifetime.end.p0(i64 8, ptr %5) #23
  call void @llvm.lifetime.end.p0(i64 8, ptr %4) #23
  %72 = load i64, ptr %2, align 8
  ret i64 %72
}