; Function Attrs: nounwind sspstrong uwtable
define internal i64 @strscan_inspect(i64 noundef %0) #0 {
  %2 = tail call ptr @rb_check_typeddata(i64 noundef %0, ptr noundef nonnull @strscanner_type) #12
  %3 = getelementptr inbounds nuw i8, ptr %2, i64 8
  %4 = load i64, ptr %3, align 8, !tbaa !23
  %5 = icmp eq i64 %4, 4
  br i1 %5, label %6, label %9

6:                                                ; preds = %1
  %7 = tail call i64 @rb_obj_class(i64 noundef %0) #12
  %8 = tail call i64 (ptr, ...) @rb_sprintf(ptr noundef nonnull @.str.76, i64 noundef %7) #12
  br label %89

9:                                                ; preds = %1
  %10 = getelementptr inbounds nuw i8, ptr %2, i64 24
  %11 = load i64, ptr %10, align 8, !tbaa !29
  %12 = inttoptr i64 %4 to ptr
  %13 = getelementptr inbounds nuw i8, ptr %12, i64 16
  %14 = load i64, ptr %13, align 8, !tbaa !32
  %.not = icmp slt i64 %11, %14
  br i1 %.not, label %18, label %15

15:                                               ; preds = %9
  %16 = tail call i64 @rb_obj_class(i64 noundef %0) #12
  %17 = tail call i64 (ptr, ...) @rb_sprintf(ptr noundef nonnull @.str.77, i64 noundef %16) #12
  br label %89

18:                                               ; preds = %9
  %19 = icmp eq i64 %11, 0
  br i1 %19, label %20, label %40

20:                                               ; preds = %18
  %21 = icmp sgt i64 %14, 5
  %22 = load i64, ptr %12, align 8, !tbaa !34, !noalias !42
  %23 = and i64 %22, 8192
  %.not.i.i.i = icmp eq i64 %23, 0
  %24 = getelementptr inbounds nuw i8, ptr %12, i64 24
  br i1 %21, label %25, label %29

25:                                               ; preds = %20
  br i1 %.not.i.i.i, label %RSTRING_PTR.exit.i, label %26

26:                                               ; preds = %25
  %.sroa.2.0.copyload.i.i = load ptr, ptr %24, align 8
  br label %RSTRING_PTR.exit.i

RSTRING_PTR.exit.i:                               ; preds = %26, %25
  %.sroa.2.0.i.i = phi ptr [ %.sroa.2.0.copyload.i.i, %26 ], [ %24, %25 ]
  %27 = tail call i64 @rb_str_new(ptr noundef %.sroa.2.0.i.i, i64 noundef 5) #12
  %28 = tail call i64 @rb_str_cat(i64 noundef %27, ptr noundef nonnull @.str.80, i64 noundef 3) #12
  br label %inspect2.exit

29:                                               ; preds = %20
  br i1 %.not.i.i.i, label %RSTRING_PTR.exit19.i, label %30

30:                                               ; preds = %29
  %.sroa.2.0.copyload.i17.i = load ptr, ptr %24, align 8
  br label %RSTRING_PTR.exit19.i

RSTRING_PTR.exit19.i:                             ; preds = %30, %29
  %.sroa.2.0.i18.i = phi ptr [ %.sroa.2.0.copyload.i17.i, %30 ], [ %24, %29 ]
  %31 = tail call i64 @rb_str_new(ptr noundef %.sroa.2.0.i18.i, i64 noundef %14) #12
  br label %inspect2.exit

inspect2.exit:                                    ; preds = %RSTRING_PTR.exit.i, %RSTRING_PTR.exit19.i
  %.012.i = phi i64 [ %27, %RSTRING_PTR.exit.i ], [ %31, %RSTRING_PTR.exit19.i ]
  %32 = tail call i64 @rb_str_dump(i64 noundef %.012.i) #12
  %33 = tail call i64 @rb_obj_class(i64 noundef %0) #12
  %34 = load i64, ptr %10, align 8, !tbaa !29
  %35 = load i64, ptr %3, align 8, !tbaa !23
  %36 = inttoptr i64 %35 to ptr
  %37 = getelementptr inbounds nuw i8, ptr %36, i64 16
  %38 = load i64, ptr %37, align 8, !tbaa !32
  %39 = tail call i64 (ptr, ...) @rb_sprintf(ptr noundef nonnull @.str.78, i64 noundef %33, i64 noundef %34, i64 noundef %38, i64 noundef %32) #12
  br label %89

40:                                               ; preds = %18
  %41 = icmp sgt i64 %11, 5
  br i1 %41, label %42, label %44

42:                                               ; preds = %40
  %43 = tail call i64 @rb_str_new_static(ptr noundef nonnull @.str.80, i64 noundef 3) #12
  br label %47

44:                                               ; preds = %40
  %45 = tail call i64 @rb_str_new_static(ptr noundef null, i64 noundef 0) #12
  %46 = load i64, ptr %10, align 8, !tbaa !29
  br label %47

47:                                               ; preds = %44, %42
  %.09.i = phi i64 [ %43, %42 ], [ %45, %44 ]
  %.0.i27 = phi i64 [ 5, %42 ], [ %46, %44 ]
  %48 = load i64, ptr %3, align 8, !tbaa !23
  %49 = inttoptr i64 %48 to ptr
  %50 = load i64, ptr %49, align 8, !tbaa !34, !noalias !100
  %51 = and i64 %50, 8192
  %.not.i.i.i28 = icmp eq i64 %51, 0
  %52 = getelementptr inbounds nuw i8, ptr %49, i64 24
  br i1 %.not.i.i.i28, label %inspect1.exit, label %53

53:                                               ; preds = %47
  %.sroa.2.0.copyload.i.i29 = load ptr, ptr %52, align 8
  br label %inspect1.exit

inspect1.exit:                                    ; preds = %47, %53
  %.sroa.2.0.i.i31 = phi ptr [ %.sroa.2.0.copyload.i.i29, %53 ], [ %52, %47 ]
  %54 = load i64, ptr %10, align 8, !tbaa !29
  %55 = getelementptr inbounds i8, ptr %.sroa.2.0.i.i31, i64 %54
  %56 = sub i64 0, %.0.i27
  %57 = getelementptr inbounds i8, ptr %55, i64 %56
  %58 = tail call i64 @rb_str_cat(i64 noundef %.09.i, ptr noundef %57, i64 noundef %.0.i27) #12
  %59 = tail call i64 @rb_str_dump(i64 noundef %.09.i) #12
  %.val25 = load i64, ptr %3, align 8, !tbaa !23
  %.val26 = load i64, ptr %10, align 8, !tbaa !29
  %60 = inttoptr i64 %.val25 to ptr
  %61 = getelementptr inbounds nuw i8, ptr %60, i64 16
  %62 = load i64, ptr %61, align 8, !tbaa !32
  %.not.i32 = icmp slt i64 %.val26, %62
  br i1 %.not.i32, label %65, label %63

63:                                               ; preds = %inspect1.exit
  %64 = tail call i64 @rb_str_new_static(ptr noundef nonnull @.str.70, i64 noundef 0) #12
  br label %inspect2.exit42

65:                                               ; preds = %inspect1.exit
  %66 = sub nsw i64 %62, %.val26
  %67 = icmp sgt i64 %66, 5
  %68 = load i64, ptr %60, align 8, !tbaa !34, !noalias !42
  %69 = and i64 %68, 8192
  %.not.i.i.i34 = icmp eq i64 %69, 0
  %70 = getelementptr inbounds nuw i8, ptr %60, i64 24
  br i1 %67, label %71, label %76

71:                                               ; preds = %65
  br i1 %.not.i.i.i34, label %RSTRING_PTR.exit.i40, label %72

72:                                               ; preds = %71
  %.sroa.2.0.copyload.i.i39 = load ptr, ptr %70, align 8
  br label %RSTRING_PTR.exit.i40

RSTRING_PTR.exit.i40:                             ; preds = %72, %71
  %.sroa.2.0.i.i41 = phi ptr [ %.sroa.2.0.copyload.i.i39, %72 ], [ %70, %71 ]
  %73 = getelementptr inbounds i8, ptr %.sroa.2.0.i.i41, i64 %.val26
  %74 = tail call i64 @rb_str_new(ptr noundef %73, i64 noundef 5) #12
  %75 = tail call i64 @rb_str_cat(i64 noundef %74, ptr noundef nonnull @.str.80, i64 noundef 3) #12
  br label %80

76:                                               ; preds = %65
  br i1 %.not.i.i.i34, label %RSTRING_PTR.exit19.i36, label %77

77:                                               ; preds = %76
  %.sroa.2.0.copyload.i17.i35 = load ptr, ptr %70, align 8
  br label %RSTRING_PTR.exit19.i36

RSTRING_PTR.exit19.i36:                           ; preds = %77, %76
  %.sroa.2.0.i18.i37 = phi ptr [ %.sroa.2.0.copyload.i17.i35, %77 ], [ %70, %76 ]
  %78 = getelementptr inbounds i8, ptr %.sroa.2.0.i18.i37, i64 %.val26
  %79 = tail call i64 @rb_str_new(ptr noundef %78, i64 noundef %66) #12
  br label %80

80:                                               ; preds = %RSTRING_PTR.exit19.i36, %RSTRING_PTR.exit.i40
  %.012.i38 = phi i64 [ %74, %RSTRING_PTR.exit.i40 ], [ %79, %RSTRING_PTR.exit19.i36 ]
  %81 = tail call i64 @rb_str_dump(i64 noundef %.012.i38) #12
  br label %inspect2.exit42

inspect2.exit42:                                  ; preds = %63, %80
  %.0.i33 = phi i64 [ %64, %63 ], [ %81, %80 ]
  %82 = tail call i64 @rb_obj_class(i64 noundef %0) #12
  %83 = load i64, ptr %10, align 8, !tbaa !29
  %84 = load i64, ptr %3, align 8, !tbaa !23
  %85 = inttoptr i64 %84 to ptr
  %86 = getelementptr inbounds nuw i8, ptr %85, i64 16
  %87 = load i64, ptr %86, align 8, !tbaa !32
  %88 = tail call i64 (ptr, ...) @rb_sprintf(ptr noundef nonnull @.str.79, i64 noundef %82, i64 noundef %83, i64 noundef %87, i64 noundef %59, i64 noundef %.0.i33) #12
  br label %89

89:                                               ; preds = %inspect2.exit42, %inspect2.exit, %15, %6
  %.0 = phi i64 [ %8, %6 ], [ %17, %15 ], [ %39, %inspect2.exit ], [ %88, %inspect2.exit42 ]
  ret i64 %.0
}